; Function Attrs: mustprogress nounwind uwtable
define hidden void @_ZN2os15pretouch_memoryEPvS0_m(ptr noundef %0, ptr noundef %1, i64 noundef %2) local_unnamed_addr #3 align 2 {
  %4 = icmp ult ptr %0, %1
  br i1 %4, label %5, label %.loopexit

5:                                                ; preds = %3
  %6 = ptrtoint ptr %0 to i64
  %7 = sub i64 0, %2
  %8 = and i64 %7, %6
  %9 = inttoptr i64 %8 to ptr
  %10 = getelementptr inbounds i8, ptr %1, i64 -1
  %11 = ptrtoint ptr %10 to i64
  %12 = and i64 %11, %7
  %13 = inttoptr i64 %12 to ptr
  %14 = tail call noundef i64 @_ZN2os18pd_pretouch_memoryEPvS0_m(ptr noundef %9, ptr noundef %13, i64 noundef %2) #28
  %.not = icmp eq i64 %14, 0
  br i1 %.not, label %.loopexit, label %15

15:                                               ; preds = %5
  %16 = sub i64 0, %14
  %17 = and i64 %16, %11
  %18 = inttoptr i64 %17 to ptr
  %19 = tail call noundef i32 asm sideeffect "lock xaddl $0,($2)", "=r,0,r,~{cc},~{memory},~{dirflag},~{fpsr},~{flags}"(i32 0, ptr %9) #28, !srcloc !34
  %.not2021 = icmp ult ptr %9, %18
  br i1 %.not2021, label %.lr.ph, label %.loopexit

.lr.ph:                                           ; preds = %15, %.lr.ph
  %.022 = phi ptr [ %20, %.lr.ph ], [ %9, %15 ]
  %20 = getelementptr inbounds i8, ptr %.022, i64 %14
  %21 = tail call noundef i32 asm sideeffect "lock xaddl $0,($2)", "=r,0,r,~{cc},~{memory},~{dirflag},~{fpsr},~{flags}"(i32 0, ptr nonnull %20) #28, !srcloc !34
  %.not20 = icmp ult ptr %20, %18
  br i1 %.not20, label %.lr.ph, label %.loopexit, !llvm.loop !35

.loopexit:                                        ; preds = %.lr.ph, %15, %5, %3
  ret void
}